; Function Attrs: mustprogress nofree norecurse nosync nounwind memory(argmem: readwrite) uwtable
define internal noundef i32 @_ZN2cvL10normL1_16uEPKtPKhPiii(ptr noundef readonly captures(none) %0, ptr noundef readonly %1, ptr noundef captures(none) %2, i32 noundef %3, i32 noundef %4) #6 {
  %6 = load i32, ptr %2, align 4
  %.not.i = icmp eq ptr %1, null
  br i1 %.not.i, label %17, label %.preheader25.i

.preheader25.i:                                   ; preds = %5
  %7 = icmp sgt i32 %3, 0
  br i1 %7, label %.lr.ph32.i, label %_ZN2cv7normL1_ItiEEiPKT_PKhPT0_ii.exit

.lr.ph32.i:                                       ; preds = %.preheader25.i
  %8 = icmp sgt i32 %4, 0
  %9 = sext i32 %4 to i64
  br i1 %8, label %.lr.ph32.split.us.preheader.i, label %_ZN2cv7normL1_ItiEEiPKT_PKhPT0_ii.exit

.lr.ph32.split.us.preheader.i:                    ; preds = %.lr.ph32.i
  %wide.trip.count40.i = zext nneg i32 %3 to i64
  %wide.trip.count.i = zext nneg i32 %4 to i64
  br label %.lr.ph32.split.us.i

.lr.ph32.split.us.i:                              ; preds = %..loopexit_crit_edge.us.i, %.lr.ph32.split.us.preheader.i
  %indvars.iv37.i = phi i64 [ 0, %.lr.ph32.split.us.preheader.i ], [ %indvars.iv.next38.i, %..loopexit_crit_edge.us.i ]
  %.130.us.i = phi i32 [ %6, %.lr.ph32.split.us.preheader.i ], [ %.3.us.i, %..loopexit_crit_edge.us.i ]
  %.02229.us.i = phi ptr [ %0, %.lr.ph32.split.us.preheader.i ], [ %16, %..loopexit_crit_edge.us.i ]
  %10 = getelementptr inbounds nuw i8, ptr %1, i64 %indvars.iv37.i
  %11 = load i8, ptr %10, align 1
  %.not24.us.i = icmp eq i8 %11, 0
  br i1 %.not24.us.i, label %..loopexit_crit_edge.us.i, label %.preheader.us.i

.preheader.us.i:                                  ; preds = %.lr.ph32.split.us.i, %.preheader.us.i
  %indvars.iv.i = phi i64 [ %indvars.iv.next.i, %.preheader.us.i ], [ 0, %.lr.ph32.split.us.i ]
  %.227.us.i = phi i32 [ %15, %.preheader.us.i ], [ %.130.us.i, %.lr.ph32.split.us.i ]
  %12 = getelementptr inbounds nuw i16, ptr %.02229.us.i, i64 %indvars.iv.i
  %13 = load i16, ptr %12, align 2
  %14 = zext i16 %13 to i32
  %15 = add nsw i32 %.227.us.i, %14
  %indvars.iv.next.i = add nuw nsw i64 %indvars.iv.i, 1
  %exitcond.not.i = icmp eq i64 %indvars.iv.next.i, %wide.trip.count.i
  br i1 %exitcond.not.i, label %..loopexit_crit_edge.us.i, label %.preheader.us.i, !llvm.loop !82

..loopexit_crit_edge.us.i:                        ; preds = %.preheader.us.i, %.lr.ph32.split.us.i
  %.3.us.i = phi i32 [ %.130.us.i, %.lr.ph32.split.us.i ], [ %15, %.preheader.us.i ]
  %indvars.iv.next38.i = add nuw nsw i64 %indvars.iv37.i, 1
  %16 = getelementptr inbounds nuw i16, ptr %.02229.us.i, i64 %9
  %exitcond41.not.i = icmp eq i64 %indvars.iv.next38.i, %wide.trip.count40.i
  br i1 %exitcond41.not.i, label %_ZN2cv7normL1_ItiEEiPKT_PKhPT0_ii.exit, label %.lr.ph32.split.us.i, !llvm.loop !83

17:                                               ; preds = %5
  %18 = mul nsw i32 %4, %3
  %19 = icmp sgt i32 %18, 0
  br i1 %19, label %.lr.ph.preheader.i.i, label %_ZN2cvL6normL1ItiEET0_PKT_i.exit.i

.lr.ph.preheader.i.i:                             ; preds = %17
  %wide.trip.count.i.i = zext nneg i32 %18 to i64
  br label %.lr.ph.i.i

.lr.ph.i.i:                                       ; preds = %.lr.ph.i.i, %.lr.ph.preheader.i.i
  %indvars.iv.i.i = phi i64 [ 0, %.lr.ph.preheader.i.i ], [ %indvars.iv.next.i.i, %.lr.ph.i.i ]
  %.067.i.i = phi i32 [ 0, %.lr.ph.preheader.i.i ], [ %23, %.lr.ph.i.i ]
  %20 = getelementptr inbounds nuw i16, ptr %0, i64 %indvars.iv.i.i
  %21 = load i16, ptr %20, align 2
  %22 = zext i16 %21 to i32
  %23 = add nuw nsw i32 %.067.i.i, %22
  %indvars.iv.next.i.i = add nuw nsw i64 %indvars.iv.i.i, 1
  %exitcond.not.i.i = icmp eq i64 %indvars.iv.next.i.i, %wide.trip.count.i.i
  br i1 %exitcond.not.i.i, label %_ZN2cvL6normL1ItiEET0_PKT_i.exit.i, label %.lr.ph.i.i, !llvm.loop !84

_ZN2cvL6normL1ItiEET0_PKT_i.exit.i:               ; preds = %.lr.ph.i.i, %17
  %.06.lcssa.i.i = phi i32 [ 0, %17 ], [ %23, %.lr.ph.i.i ]
  %24 = add nsw i32 %.06.lcssa.i.i, %6
  br label %_ZN2cv7normL1_ItiEEiPKT_PKhPT0_ii.exit

_ZN2cv7normL1_ItiEEiPKT_PKhPT0_ii.exit:           ; preds = %..loopexit_crit_edge.us.i, %.preheader25.i, %.lr.ph32.i, %_ZN2cvL6normL1ItiEET0_PKT_i.exit.i
  %.021.i = phi i32 [ %24, %_ZN2cvL6normL1ItiEET0_PKT_i.exit.i ], [ %6, %.preheader25.i ], [ %6, %.lr.ph32.i ], [ %.3.us.i, %..loopexit_crit_edge.us.i ]
  store i32 %.021.i, ptr %2, align 4
  ret i32 0
}